target datalayout = "e-m:e-p270:32:32-p271:32:32-p272:64:64-i64:64-i128:128-f80:128-n8:16:32:64-S128"
target triple = "x86_64-pc-linux-gnu"

%struct.IDAMemRec = type { double, ptr, ptr, i32, double, double, ptr, i32, ptr, ptr, i32, ptr, ptr, i32, i32, double, double, ptr, i32, i32, i32, ptr, ptr, i32, ptr, ptr, ptr, i32, double, i32, i32, double, ptr, ptr, i32, ptr, ptr, i32, i32, i32, double, ptr, ptr, [6 x ptr], [6 x double], [6 x double], [6 x double], [6 x double], [6 x double], ptr, ptr, ptr, ptr, ptr, ptr, ptr, ptr, ptr, ptr, ptr, ptr, ptr, ptr, ptr, [6 x ptr], ptr, ptr, ptr, ptr, [6 x ptr], ptr, ptr, ptr, ptr, ptr, ptr, ptr, ptr, ptr, ptr, ptr, ptr, ptr, ptr, [6 x ptr], ptr, ptr, ptr, ptr, ptr, double, ptr, ptr, i32, i32, i32, i32, i32, i32, i32, double, double, double, i32, double, i32, i32, i32, i32, double, double, double, double, double, double, double, double, double, double, double, double, double, double, i32, i32, i32, i32, i32, i64, double, i32, i64, i64, i64, i64, i64, i64, i64, i64, i64, i64, i64, i64, i64, i64, i64, i64, i64, i64, i64, i64, i64, i64, i64, i64, ptr, ptr, ptr, i32, i32, i32, i32, i32, i32, i32, i32, i32, i32, i32, i32, i32, ptr, ptr, ptr, ptr, ptr, ptr, i32, i32, i32, i32, i32, i32, double, double, double, ptr, i32, ptr, ptr, double, double, double, ptr, ptr, ptr, double, double, i32, i32, i64, ptr, i32, i32, ptr, i32 }

@.str = private unnamed_addr constant [5 x i8] c"IDAS\00", align 1
@.str.4 = private unnamed_addr constant [24 x i8] c"ida_mem = NULL illegal.\00", align 1
@.str.17 = private unnamed_addr constant [14 x i8] c"IDAQuadReInit\00", align 1
@.str.18 = private unnamed_addr constant [52 x i8] c"Illegal attempt to call before calling IDAQuadInit.\00", align 1

; Function Attrs: nounwind uwtable
define i32 @IDAQuadReInit(ptr noundef %0, ptr noundef %1) #0 {
  %3 = alloca i32, align 4
  %4 = alloca ptr, align 8
  %5 = alloca ptr, align 8
  %6 = alloca ptr, align 8
  %7 = alloca i32, align 4
  %8 = alloca i32, align 4
  store ptr %0, ptr %4, align 8, !tbaa !91
  store ptr %1, ptr %5, align 8, !tbaa !93
  call void @llvm.lifetime.start.p0(i64 8, ptr %6) #8
  call void @llvm.lifetime.start.p0(i64 4, ptr %7) #8
  %9 = load ptr, ptr %4, align 8, !tbaa !91
  %10 = icmp eq ptr %9, null
  br i1 %10, label %11, label %12

11:                                               ; preds = %2
  call void (ptr, i32, ptr, ptr, ptr, ...) @IDAProcessError(ptr noundef null, i32 noundef -20, ptr noundef @.str, ptr noundef @.str.17, ptr noundef @.str.4)
  store i32 -20, ptr %3, align 4
  store i32 1, ptr %8, align 4
  br label %49

12:                                               ; preds = %2
  %13 = load ptr, ptr %4, align 8, !tbaa !91
  store ptr %13, ptr %6, align 8, !tbaa !3
  %14 = load ptr, ptr %6, align 8, !tbaa !3
  %15 = getelementptr inbounds nuw %struct.IDAMemRec, ptr %14, i32 0, i32 164
  %16 = load i32, ptr %15, align 8, !tbaa !80
  %17 = icmp eq i32 %16, 0
  br i1 %17, label %18, label %20

18:                                               ; preds = %12
  %19 = load ptr, ptr %6, align 8, !tbaa !3
  call void (ptr, i32, ptr, ptr, ptr, ...) @IDAProcessError(ptr noundef %19, i32 noundef -30, ptr noundef @.str, ptr noundef @.str.17, ptr noundef @.str.18)
  store i32 -30, ptr %3, align 4
  store i32 1, ptr %8, align 4
  br label %49

20:                                               ; preds = %12
  %21 = load ptr, ptr %5, align 8, !tbaa !93
  %22 = load ptr, ptr %6, align 8, !tbaa !3
  %23 = getelementptr inbounds nuw %struct.IDAMemRec, ptr %22, i32 0, i32 64
  %24 = getelementptr inbounds [6 x ptr], ptr %23, i64 0, i64 0
  %25 = load ptr, ptr %24, align 8, !tbaa !93
  call void @N_VScale(double noundef 1.000000e+00, ptr noundef %21, ptr noundef %25)
  store i32 1, ptr %7, align 4, !tbaa !88
  br label %26

26:                                               ; preds = %39, %20
  %27 = load i32, ptr %7, align 4, !tbaa !88
  %28 = load ptr, ptr %6, align 8, !tbaa !3
  %29 = getelementptr inbounds nuw %struct.IDAMemRec, ptr %28, i32 0, i32 126
  %30 = load i32, ptr %29, align 4, !tbaa !29
  %31 = icmp sle i32 %27, %30
  br i1 %31, label %32, label %42

32:                                               ; preds = %26
  %33 = load ptr, ptr %6, align 8, !tbaa !3
  %34 = getelementptr inbounds nuw %struct.IDAMemRec, ptr %33, i32 0, i32 64
  %35 = load i32, ptr %7, align 4, !tbaa !88
  %36 = sext i32 %35 to i64
  %37 = getelementptr inbounds [6 x ptr], ptr %34, i64 0, i64 %36
  %38 = load ptr, ptr %37, align 8, !tbaa !93
  call void @N_VConst(double noundef 0.000000e+00, ptr noundef %38)
  br label %39

39:                                               ; preds = %32
  %40 = load i32, ptr %7, align 4, !tbaa !88
  %41 = add nsw i32 %40, 1
  store i32 %41, ptr %7, align 4, !tbaa !88
  br label %26, !llvm.loop !169

42:                                               ; preds = %26
  %43 = load ptr, ptr %6, align 8, !tbaa !3
  %44 = getelementptr inbounds nuw %struct.IDAMemRec, ptr %43, i32 0, i32 133
  store i64 0, ptr %44, align 8, !tbaa !161
  %45 = load ptr, ptr %6, align 8, !tbaa !3
  %46 = getelementptr inbounds nuw %struct.IDAMemRec, ptr %45, i32 0, i32 142
  store i64 0, ptr %46, align 8, !tbaa !162
  %47 = load ptr, ptr %6, align 8, !tbaa !3
  %48 = getelementptr inbounds nuw %struct.IDAMemRec, ptr %47, i32 0, i32 10
  store i32 1, ptr %48, align 8, !tbaa !49
  store i32 0, ptr %3, align 4
  store i32 1, ptr %8, align 4
  br label %49

49:                                               ; preds = %42, %18, %11
  call void @llvm.lifetime.end.p0(i64 4, ptr %7) #8
  call void @llvm.lifetime.end.p0(i64 8, ptr %6) #8
  %50 = load i32, ptr %3, align 4
  ret i32 %50
}