; Function Attrs: nounwind uwtable
define range(i32 -30, 1) i32 @IDAQuadReInit(ptr noundef captures(address_is_null) %0, ptr noundef %1) local_unnamed_addr #0 {
  %3 = icmp eq ptr %0, null
  br i1 %3, label %4, label %5

4:                                                ; preds = %2
  tail call void (ptr, i32, ptr, ptr, ptr, ...) @IDAProcessError(ptr noundef null, i32 noundef -20, ptr noundef nonnull @.str, ptr noundef nonnull @.str.17, ptr noundef nonnull @.str.4)
  br label %22

5:                                                ; preds = %2
  %6 = getelementptr inbounds nuw i8, ptr %0, i64 1560
  %7 = load i32, ptr %6, align 8, !tbaa !133
  %8 = icmp eq i32 %7, 0
  br i1 %8, label %9, label %10

9:                                                ; preds = %5
  tail call void (ptr, i32, ptr, ptr, ptr, ...) @IDAProcessError(ptr noundef nonnull %0, i32 noundef -30, ptr noundef nonnull @.str, ptr noundef nonnull @.str.17, ptr noundef nonnull @.str.18)
  br label %22

10:                                               ; preds = %5
  %11 = getelementptr inbounds nuw i8, ptr %0, i64 720
  %12 = load ptr, ptr %11, align 8, !tbaa !57
  tail call void @N_VScale(double noundef 1.000000e+00, ptr noundef %1, ptr noundef %12) #13
  %13 = getelementptr inbounds nuw i8, ptr %0, i64 1284
  %14 = load i32, ptr %13, align 4, !tbaa !21
  %.not16 = icmp slt i32 %14, 1
  br i1 %.not16, label %._crit_edge, label %.lr.ph

.lr.ph:                                           ; preds = %10, %.lr.ph
  %indvars.iv = phi i64 [ %indvars.iv.next, %.lr.ph ], [ 1, %10 ]
  %15 = getelementptr inbounds nuw [6 x ptr], ptr %11, i64 0, i64 %indvars.iv
  %16 = load ptr, ptr %15, align 8, !tbaa !57
  tail call void @N_VConst(double noundef 0.000000e+00, ptr noundef %16) #13
  %indvars.iv.next = add nuw nsw i64 %indvars.iv, 1
  %17 = load i32, ptr %13, align 4, !tbaa !21
  %18 = sext i32 %17 to i64
  %.not.not = icmp slt i64 %indvars.iv, %18
  br i1 %.not.not, label %.lr.ph, label %._crit_edge, !llvm.loop !134

._crit_edge:                                      ; preds = %.lr.ph, %10
  %19 = getelementptr inbounds nuw i8, ptr %0, i64 1336
  store i64 0, ptr %19, align 8, !tbaa !131
  %20 = getelementptr inbounds nuw i8, ptr %0, i64 1408
  store i64 0, ptr %20, align 8, !tbaa !132
  %21 = getelementptr inbounds nuw i8, ptr %0, i64 80
  store i32 1, ptr %21, align 8, !tbaa !33
  br label %22

22:                                               ; preds = %._crit_edge, %9, %4
  %.014 = phi i32 [ -20, %4 ], [ -30, %9 ], [ 0, %._crit_edge ]
  ret i32 %.014
}